; Function Attrs: nounwind uwtable
define hidden i32 @exr_attr_string_init(ptr noundef %0, ptr noundef writeonly %1, i32 noundef %2) local_unnamed_addr #0 {
  %.not = icmp eq ptr %0, null
  br i1 %.not, label %29, label %4

4:                                                ; preds = %3
  %5 = icmp slt i32 %2, 0
  br i1 %5, label %6, label %10

6:                                                ; preds = %4
  %7 = getelementptr inbounds nuw i8, ptr %0, i64 72
  %8 = load ptr, ptr %7, align 8, !tbaa !3
  %9 = tail call i32 (ptr, i32, ptr, ...) %8(ptr noundef nonnull %0, i32 noundef 3, ptr noundef nonnull @.str, i32 noundef %2) #4
  br label %29

10:                                               ; preds = %4
  %.not22 = icmp eq ptr %1, null
  br i1 %.not22, label %11, label %15

11:                                               ; preds = %10
  %12 = getelementptr inbounds nuw i8, ptr %0, i64 64
  %13 = load ptr, ptr %12, align 8, !tbaa !22
  %14 = tail call i32 %13(ptr noundef nonnull %0, i32 noundef 3, ptr noundef nonnull @.str.1) #4
  br label %29

15:                                               ; preds = %10
  tail call void @llvm.memset.p0.i64(ptr noundef nonnull align 8 dereferenceable(16) %1, i8 0, i64 16, i1 false)
  %16 = getelementptr inbounds nuw i8, ptr %0, i64 88
  %17 = load ptr, ptr %16, align 8, !tbaa !23
  %18 = add nuw nsw i32 %2, 1
  %19 = zext nneg i32 %18 to i64
  %20 = tail call ptr %17(i64 noundef %19) #4
  %21 = getelementptr inbounds nuw i8, ptr %1, i64 8
  store ptr %20, ptr %21, align 8, !tbaa !24
  %22 = icmp eq ptr %20, null
  br i1 %22, label %23, label %27

23:                                               ; preds = %15
  %24 = getelementptr inbounds nuw i8, ptr %0, i64 56
  %25 = load ptr, ptr %24, align 8, !tbaa !25
  %26 = tail call i32 %25(ptr noundef nonnull %0, i32 noundef 1) #4
  br label %29

27:                                               ; preds = %15
  store i32 %2, ptr %1, align 8, !tbaa !26
  %28 = getelementptr inbounds nuw i8, ptr %1, i64 4
  store i32 %18, ptr %28, align 4, !tbaa !27
  br label %29

29:                                               ; preds = %3, %27, %23, %11, %6
  %.0 = phi i32 [ %9, %6 ], [ %26, %23 ], [ 0, %27 ], [ %14, %11 ], [ 2, %3 ]
  ret i32 %.0
}